; Function Attrs: mustprogress nofree norecurse nosync nounwind willreturn memory(argmem: readwrite) uwtable
define dso_local noundef ptr @_ZN5clang11OMPChildren6CreateEPvN4llvm8ArrayRefIPNS_9OMPClauseEEEPNS_4StmtEj(ptr noundef returned writeonly %0, ptr nocapture readonly %1, i64 %2, ptr noundef %3, i32 noundef %4) local_unnamed_addr #1 align 2 {
  %6 = trunc i64 %2 to i32
  %7 = icmp ne ptr %3, null
  %8 = zext i1 %7 to i8
  store i32 %6, ptr %0, align 8
  %9 = getelementptr inbounds nuw i8, ptr %0, i64 4
  store i32 %4, ptr %9, align 4
  %10 = getelementptr inbounds nuw i8, ptr %0, i64 8
  store i8 %8, ptr %10, align 8
  %.not.i.i.i.i.i.i.i = icmp eq i64 %2, 0
  br i1 %.not.i.i.i.i.i.i.i, label %_ZN5clang11OMPChildren10setClausesEN4llvm8ArrayRefIPNS_9OMPClauseEEE.exit, label %11

11:                                               ; preds = %5
  %.idx.i.i = shl nsw i64 %2, 3
  %12 = getelementptr inbounds i8, ptr %0, i64 16
  tail call void @llvm.memmove.p0.p0.i64(ptr nonnull align 8 %12, ptr readonly align 8 %1, i64 %.idx.i.i, i1 false)
  br label %_ZN5clang11OMPChildren10setClausesEN4llvm8ArrayRefIPNS_9OMPClauseEEE.exit

_ZN5clang11OMPChildren10setClausesEN4llvm8ArrayRefIPNS_9OMPClauseEEE.exit: ; preds = %5, %11
  br i1 %7, label %13, label %19

13:                                               ; preds = %_ZN5clang11OMPChildren10setClausesEN4llvm8ArrayRefIPNS_9OMPClauseEEE.exit
  %14 = getelementptr inbounds i8, ptr %0, i64 16
  %15 = and i64 %2, 4294967295
  %16 = getelementptr inbounds ptr, ptr %14, i64 %15
  %17 = zext i32 %4 to i64
  %18 = getelementptr inbounds ptr, ptr %16, i64 %17
  store ptr %3, ptr %18, align 8
  br label %19

19:                                               ; preds = %13, %_ZN5clang11OMPChildren10setClausesEN4llvm8ArrayRefIPNS_9OMPClauseEEE.exit
  ret ptr %0
}